target datalayout = "e-m:e-p270:32:32-p271:32:32-p272:64:64-i64:64-i128:128-f80:128-n8:16:32:64-S128"
target triple = "x86_64-pc-linux-gnu"

%"class.std::locale" = type { ptr }
%"class.std::locale::id" = type { i64 }
%"class.mu::ParserBase::change_dec_sep" = type <{ %"class.std::__cxx11::numpunct", i32, i8, i8, [2 x i8] }>
%"class.std::__cxx11::numpunct" = type { %"class.std::locale::facet.base", ptr }
%"class.std::locale::facet.base" = type <{ ptr, i32 }>
%"class.std::locale::_Impl" = type { i32, ptr, i64, ptr, ptr }

@_ZN2mu10ParserBase8s_localeE = global %"class.std::locale" zeroinitializer, align 8
@_ZTIN2mu10ParserBase14change_dec_sepIcEE = linkonce_odr constant { ptr, ptr, ptr } { ptr getelementptr inbounds (ptr, ptr @_ZTVN10__cxxabiv120__si_class_type_infoE, i64 2), ptr @_ZTSN2mu10ParserBase14change_dec_sepIcEE, ptr @_ZTINSt7__cxx118numpunctIcEE }, comdat, align 8
@_ZNSt7__cxx118numpunctIcE2idE = external global %"class.std::locale::id", align 8
@.str.23 = private unnamed_addr constant [2 x i8] c"C\00", align 1
@_ZTINSt6locale5facetE = external constant ptr

; Function Attrs: mustprogress uwtable
define linkonce_odr void @_ZN2mu10ParserBase14change_dec_sepIcEC2Ecci(ptr noundef nonnull align 8 dereferenceable(30) %0, i8 noundef signext %1, i8 noundef signext %2, i32 noundef %3) unnamed_addr #6 comdat align 2 {
  %5 = alloca ptr, align 8
  %6 = alloca i8, align 1
  %7 = alloca i8, align 1
  %8 = alloca i32, align 4
  store ptr %0, ptr %5, align 8
  store i8 %1, ptr %6, align 1
  store i8 %2, ptr %7, align 1
  store i32 %3, ptr %8, align 4
  %9 = load ptr, ptr %5, align 8
  call void @_ZNSt7__cxx118numpunctIcEC2Em(ptr noundef nonnull align 8 dereferenceable(24) %9, i64 noundef 0)
  store ptr getelementptr inbounds inrange(-16, 56) ({ [9 x ptr] }, ptr @_ZTVN2mu10ParserBase14change_dec_sepIcEE, i32 0, i32 0, i32 2), ptr %9, align 8
  %10 = getelementptr inbounds %"class.mu::ParserBase::change_dec_sep", ptr %9, i32 0, i32 1
  %11 = load i32, ptr %8, align 4
  store i32 %11, ptr %10, align 8
  %12 = getelementptr inbounds %"class.mu::ParserBase::change_dec_sep", ptr %9, i32 0, i32 2
  %13 = load i8, ptr %6, align 1
  store i8 %13, ptr %12, align 4
  %14 = getelementptr inbounds %"class.mu::ParserBase::change_dec_sep", ptr %9, i32 0, i32 3
  %15 = load i8, ptr %7, align 1
  store i8 %15, ptr %14, align 1
  ret void
}

; Function Attrs: mustprogress uwtable
define linkonce_odr noundef nonnull align 8 dereferenceable(30) ptr @_ZSt9use_facetIN2mu10ParserBase14change_dec_sepIcEEERKT_RKSt6locale(ptr noundef nonnull align 8 dereferenceable(8) %0) #6 comdat {
  %2 = alloca ptr, align 8
  %3 = alloca i64, align 8
  %4 = alloca ptr, align 8
  store ptr %0, ptr %2, align 8
  %5 = call noundef i64 @_ZNKSt6locale2id5_M_idEv(ptr noundef nonnull align 8 dereferenceable(8) @_ZNSt7__cxx118numpunctIcE2idE) #4
  store i64 %5, ptr %3, align 8
  %6 = load ptr, ptr %2, align 8
  %7 = getelementptr inbounds %"class.std::locale", ptr %6, i32 0, i32 0
  %8 = load ptr, ptr %7, align 8
  %9 = getelementptr inbounds %"class.std::locale::_Impl", ptr %8, i32 0, i32 1
  %10 = load ptr, ptr %9, align 8
  store ptr %10, ptr %4, align 8
  %11 = load i64, ptr %3, align 8
  %12 = load ptr, ptr %2, align 8
  %13 = getelementptr inbounds %"class.std::locale", ptr %12, i32 0, i32 0
  %14 = load ptr, ptr %13, align 8
  %15 = getelementptr inbounds %"class.std::locale::_Impl", ptr %14, i32 0, i32 2
  %16 = load i64, ptr %15, align 8
  %17 = icmp uge i64 %11, %16
  br i1 %17, label %24, label %18

18:                                               ; preds = %1
  %19 = load ptr, ptr %4, align 8
  %20 = load i64, ptr %3, align 8
  %21 = getelementptr inbounds ptr, ptr %19, i64 %20
  %22 = load ptr, ptr %21, align 8
  %23 = icmp ne ptr %22, null
  br i1 %23, label %25, label %24

24:                                               ; preds = %18, %1
  call void @_ZSt16__throw_bad_castv() #21
  unreachable

25:                                               ; preds = %18
  %26 = load ptr, ptr %4, align 8
  %27 = load i64, ptr %3, align 8
  %28 = getelementptr inbounds ptr, ptr %26, i64 %27
  %29 = load ptr, ptr %28, align 8
  %30 = call ptr @__dynamic_cast(ptr %29, ptr @_ZTINSt6locale5facetE, ptr @_ZTIN2mu10ParserBase14change_dec_sepIcEE, i64 0) #4
  %31 = icmp eq ptr %30, null
  br i1 %31, label %32, label %33

32:                                               ; preds = %25
  call void @__cxa_bad_cast() #21
  unreachable

33:                                               ; preds = %25
  ret ptr %30
}

; Function Attrs: mustprogress uwtable
define void @_ZN2mu10ParserBase15SetThousandsSepEc(ptr noundef nonnull align 8 dereferenceable(596) %0, i8 noundef signext %1) #6 align 2 personality ptr @__gxx_personality_v0 {
  %3 = alloca ptr, align 8
  %4 = alloca i8, align 1
  %5 = alloca i8, align 1
  %6 = alloca %"class.std::locale", align 8
  %7 = alloca %"class.std::locale", align 8
  %8 = alloca ptr, align 8
  %9 = alloca i32, align 4
  store ptr %0, ptr %3, align 8
  store i8 %1, ptr %4, align 1
  %10 = call noundef nonnull align 8 dereferenceable(30) ptr @_ZSt9use_facetIN2mu10ParserBase14change_dec_sepIcEEERKT_RKSt6locale(ptr noundef nonnull align 8 dereferenceable(8) @_ZN2mu10ParserBase8s_localeE)
  %11 = call noundef signext i8 @_ZNKSt7__cxx118numpunctIcE13decimal_pointEv(ptr noundef nonnull align 8 dereferenceable(24) %10)
  store i8 %11, ptr %5, align 1
  call void @_ZNSt6localeC1EPKc(ptr noundef nonnull align 8 dereferenceable(8) %7, ptr noundef @.str.23)
  %12 = invoke noalias noundef nonnull ptr @_Znwm(i64 noundef 32) #19
          to label %13 unwind label %19

13:                                               ; preds = %2
  %14 = load i8, ptr %5, align 1
  %15 = load i8, ptr %4, align 1
  invoke void @_ZN2mu10ParserBase14change_dec_sepIcEC2Ecci(ptr noundef nonnull align 8 dereferenceable(30) %12, i8 noundef signext %14, i8 noundef signext %15, i32 noundef 3)
          to label %16 unwind label %23

16:                                               ; preds = %13
  invoke void @_ZNSt6localeC2IN2mu10ParserBase14change_dec_sepIcEEEERKS_PT_(ptr noundef nonnull align 8 dereferenceable(8) %6, ptr noundef nonnull align 8 dereferenceable(8) %7, ptr noundef %12)
          to label %17 unwind label %19

17:                                               ; preds = %16
  %18 = call noundef nonnull align 8 dereferenceable(8) ptr @_ZNSt6localeaSERKS_(ptr noundef nonnull align 8 dereferenceable(8) @_ZN2mu10ParserBase8s_localeE, ptr noundef nonnull align 8 dereferenceable(8) %6) #4
  call void @_ZNSt6localeD1Ev(ptr noundef nonnull align 8 dereferenceable(8) %6) #4
  call void @_ZNSt6localeD1Ev(ptr noundef nonnull align 8 dereferenceable(8) %7) #4
  ret void

19:                                               ; preds = %16, %2
  %20 = landingpad { ptr, i32 }
          cleanup
  %21 = extractvalue { ptr, i32 } %20, 0
  store ptr %21, ptr %8, align 8
  %22 = extractvalue { ptr, i32 } %20, 1
  store i32 %22, ptr %9, align 4
  br label %27

23:                                               ; preds = %13
  %24 = landingpad { ptr, i32 }
          cleanup
  %25 = extractvalue { ptr, i32 } %24, 0
  store ptr %25, ptr %8, align 8
  %26 = extractvalue { ptr, i32 } %24, 1
  store i32 %26, ptr %9, align 4
  call void @_ZdlPv(ptr noundef %12) #20
  br label %27

27:                                               ; preds = %23, %19
  call void @_ZNSt6localeD1Ev(ptr noundef nonnull align 8 dereferenceable(8) %7) #4
  br label %28

28:                                               ; preds = %27
  %29 = load ptr, ptr %8, align 8
  %30 = load i32, ptr %9, align 4
  %31 = insertvalue { ptr, i32 } poison, ptr %29, 0
  %32 = insertvalue { ptr, i32 } %31, i32 %30, 1
  resume { ptr, i32 } %32
}