; Function Attrs: mustprogress uwtable
define void @_ZN2mu10ParserBase15SetThousandsSepEc(ptr nocapture noundef nonnull readnone align 8 dereferenceable(596) %0, i8 noundef signext %1) local_unnamed_addr #7 align 2 personality ptr @__gxx_personality_v0 {
  %3 = alloca %"class.std::locale", align 8
  %4 = alloca %"class.std::locale", align 8
  %5 = tail call noundef i64 @_ZNKSt6locale2id5_M_idEv(ptr noundef nonnull align 8 dereferenceable(8) @_ZNSt7__cxx118numpunctIcE2idE) #23
  %6 = load ptr, ptr @_ZN2mu10ParserBase8s_localeE, align 8
  %7 = getelementptr inbounds i8, ptr %6, i64 16
  %8 = load i64, ptr %7, align 8
  %.not.i = icmp ult i64 %5, %8
  br i1 %.not.i, label %9, label %14

9:                                                ; preds = %2
  %10 = getelementptr inbounds i8, ptr %6, i64 8
  %11 = load ptr, ptr %10, align 8
  %12 = getelementptr inbounds ptr, ptr %11, i64 %5
  %13 = load ptr, ptr %12, align 8
  %.not8.i = icmp eq ptr %13, null
  br i1 %.not8.i, label %14, label %15

14:                                               ; preds = %9, %2
  tail call void @_ZSt16__throw_bad_castv() #32
  unreachable

15:                                               ; preds = %9
  %16 = tail call ptr @__dynamic_cast(ptr nonnull %13, ptr nonnull @_ZTINSt6locale5facetE, ptr nonnull @_ZTIN2mu10ParserBase14change_dec_sepIcEE, i64 0) #23
  %17 = icmp eq ptr %16, null
  br i1 %17, label %18, label %_ZSt9use_facetIN2mu10ParserBase14change_dec_sepIcEEERKT_RKSt6locale.exit

18:                                               ; preds = %15
  tail call void @__cxa_bad_cast() #32
  unreachable

_ZSt9use_facetIN2mu10ParserBase14change_dec_sepIcEEERKT_RKSt6locale.exit: ; preds = %15
  %19 = tail call noundef signext i8 @_ZNKSt7__cxx118numpunctIcE13decimal_pointEv(ptr noundef nonnull align 8 dereferenceable(24) %16)
  call void @_ZNSt6localeC1EPKc(ptr noundef nonnull align 8 dereferenceable(8) %4, ptr noundef nonnull @.str.23)
  %20 = invoke noalias noundef nonnull dereferenceable(32) ptr @_Znwm(i64 noundef 32) #30
          to label %21 unwind label %28

21:                                               ; preds = %_ZSt9use_facetIN2mu10ParserBase14change_dec_sepIcEEERKT_RKSt6locale.exit
  invoke void @_ZNSt7__cxx118numpunctIcEC2Em(ptr noundef nonnull align 8 dereferenceable(24) %20, i64 noundef 0)
          to label %22 unwind label %30

22:                                               ; preds = %21
  store ptr getelementptr inbounds inrange(-16, 56) ({ [9 x ptr] }, ptr @_ZTVN2mu10ParserBase14change_dec_sepIcEE, i64 0, i32 0, i64 2), ptr %20, align 8
  %23 = getelementptr inbounds i8, ptr %20, i64 24
  store i32 3, ptr %23, align 8
  %24 = getelementptr inbounds i8, ptr %20, i64 28
  store i8 %19, ptr %24, align 4
  %25 = getelementptr inbounds i8, ptr %20, i64 29
  store i8 %1, ptr %25, align 1
  invoke void @_ZNSt6localeC2IN2mu10ParserBase14change_dec_sepIcEEEERKS_PT_(ptr noundef nonnull align 8 dereferenceable(8) %3, ptr noundef nonnull align 8 dereferenceable(8) %4, ptr noundef nonnull %20)
          to label %26 unwind label %28

26:                                               ; preds = %22
  %27 = call noundef nonnull align 8 dereferenceable(8) ptr @_ZNSt6localeaSERKS_(ptr noundef nonnull align 8 dereferenceable(8) @_ZN2mu10ParserBase8s_localeE, ptr noundef nonnull align 8 dereferenceable(8) %3) #23
  call void @_ZNSt6localeD1Ev(ptr noundef nonnull align 8 dereferenceable(8) %3) #23
  call void @_ZNSt6localeD1Ev(ptr noundef nonnull align 8 dereferenceable(8) %4) #23
  ret void

28:                                               ; preds = %22, %_ZSt9use_facetIN2mu10ParserBase14change_dec_sepIcEEERKT_RKSt6locale.exit
  %29 = landingpad { ptr, i32 }
          cleanup
  br label %32

30:                                               ; preds = %21
  %31 = landingpad { ptr, i32 }
          cleanup
  call void @_ZdlPv(ptr noundef nonnull %20) #31
  br label %32

32:                                               ; preds = %30, %28
  %.pn = phi { ptr, i32 } [ %29, %28 ], [ %31, %30 ]
  call void @_ZNSt6localeD1Ev(ptr noundef nonnull align 8 dereferenceable(8) %4) #23
  resume { ptr, i32 } %.pn
}